target datalayout = "e-m:e-p270:32:32-p271:32:32-p272:64:64-i64:64-i128:128-f80:128-n8:16:32:64-S128"
target triple = "x86_64-pc-linux-gnu"

%struct.AVFilterContext = type { ptr, ptr, ptr, ptr, ptr, i32, ptr, ptr, i32, ptr, ptr, i32, i32, ptr, ptr, ptr, ptr, i32, ptr, i32, i32 }
%struct.CropContext = type { ptr, i32, i32, i32, i32, %struct.AVRational, i32, i32, [4 x i32], i32, i32, ptr, ptr, ptr, ptr, ptr, ptr, [17 x double] }
%struct.AVRational = type { i32, i32 }
%struct.AVFilterLink = type { ptr, ptr, ptr, ptr, i32, i32, i32, i32, %struct.AVRational, i32, i32, i32, %struct.AVChannelLayout, %struct.AVRational, ptr, i32, %struct.AVFilterFormatsConfig, %struct.AVFilterFormatsConfig }
%struct.AVChannelLayout = type { i32, i32, %union.anon.1, ptr }
%union.anon.1 = type { i64 }
%struct.AVFilterFormatsConfig = type { ptr, ptr, ptr, ptr, ptr }
%struct.AVPixFmtDescriptor = type { ptr, i8, i8, i8, i64, [4 x %struct.AVComponentDescriptor], ptr }
%struct.AVComponentDescriptor = type { i32, i32, i32, i32, i32 }

; Function Attrs: nounwind uwtable
define internal i32 @config_output(ptr noundef %0) #1 {
  %2 = alloca ptr, align 8
  %3 = alloca ptr, align 8
  %4 = alloca ptr, align 8
  store ptr %0, ptr %2, align 8, !tbaa !38
  call void @llvm.lifetime.start.p0(i64 8, ptr %3) #9
  %5 = load ptr, ptr %2, align 8, !tbaa !38
  %6 = getelementptr inbounds nuw %struct.AVFilterLink, ptr %5, i32 0, i32 0
  %7 = load ptr, ptr %6, align 8, !tbaa !96
  %8 = getelementptr inbounds nuw %struct.AVFilterContext, ptr %7, i32 0, i32 9
  %9 = load ptr, ptr %8, align 8, !tbaa !9
  store ptr %9, ptr %3, align 8, !tbaa !22
  call void @llvm.lifetime.start.p0(i64 8, ptr %4) #9
  %10 = load ptr, ptr %2, align 8, !tbaa !38
  %11 = getelementptr inbounds nuw %struct.AVFilterLink, ptr %10, i32 0, i32 5
  %12 = load i32, ptr %11, align 4, !tbaa !52
  %13 = call ptr @av_pix_fmt_desc_get(i32 noundef %12)
  store ptr %13, ptr %4, align 8, !tbaa !53
  %14 = load ptr, ptr %4, align 8, !tbaa !53
  %15 = getelementptr inbounds nuw %struct.AVPixFmtDescriptor, ptr %14, i32 0, i32 4
  %16 = load i64, ptr %15, align 8, !tbaa !70
  %17 = and i64 %16, 8
  %18 = icmp ne i64 %17, 0
  br i1 %18, label %19, label %20

19:                                               ; preds = %1
  br label %31

20:                                               ; preds = %1
  %21 = load ptr, ptr %3, align 8, !tbaa !22
  %22 = getelementptr inbounds nuw %struct.CropContext, ptr %21, i32 0, i32 3
  %23 = load i32, ptr %22, align 8, !tbaa !35
  %24 = load ptr, ptr %2, align 8, !tbaa !38
  %25 = getelementptr inbounds nuw %struct.AVFilterLink, ptr %24, i32 0, i32 6
  store i32 %23, ptr %25, align 8, !tbaa !65
  %26 = load ptr, ptr %3, align 8, !tbaa !22
  %27 = getelementptr inbounds nuw %struct.CropContext, ptr %26, i32 0, i32 4
  %28 = load i32, ptr %27, align 4, !tbaa !36
  %29 = load ptr, ptr %2, align 8, !tbaa !38
  %30 = getelementptr inbounds nuw %struct.AVFilterLink, ptr %29, i32 0, i32 7
  store i32 %28, ptr %30, align 4, !tbaa !66
  br label %31

31:                                               ; preds = %20, %19
  %32 = load ptr, ptr %2, align 8, !tbaa !38
  %33 = getelementptr inbounds nuw %struct.AVFilterLink, ptr %32, i32 0, i32 8
  %34 = load ptr, ptr %3, align 8, !tbaa !22
  %35 = getelementptr inbounds nuw %struct.CropContext, ptr %34, i32 0, i32 5
  call void @llvm.memcpy.p0.p0.i64(ptr align 8 %33, ptr align 8 %35, i64 8, i1 false), !tbaa.struct !90
  call void @llvm.lifetime.end.p0(i64 8, ptr %4) #9
  call void @llvm.lifetime.end.p0(i64 8, ptr %3) #9
  ret i32 0
}