; Function Attrs: nounwind uwtable
define internal noundef i32 @config_output(ptr noundef captures(none) initializes((48, 56)) %0) #1 {
  %2 = load ptr, ptr %0, align 8, !tbaa !33
  %3 = getelementptr inbounds nuw i8, ptr %2, i64 72
  %4 = load ptr, ptr %3, align 8, !tbaa !4
  %5 = getelementptr inbounds nuw i8, ptr %0, i64 36
  %6 = load i32, ptr %5, align 4, !tbaa !41
  %7 = tail call ptr @av_pix_fmt_desc_get(i32 noundef %6) #8
  %8 = getelementptr inbounds nuw i8, ptr %7, i64 16
  %9 = load i64, ptr %8, align 8, !tbaa !42
  %10 = and i64 %9, 8
  %.not = icmp eq i64 %10, 0
  br i1 %.not, label %11, label %18

11:                                               ; preds = %1
  %12 = getelementptr inbounds nuw i8, ptr %4, i64 16
  %13 = load i32, ptr %12, align 8, !tbaa !27
  %14 = getelementptr inbounds nuw i8, ptr %0, i64 40
  store i32 %13, ptr %14, align 8, !tbaa !45
  %15 = getelementptr inbounds nuw i8, ptr %4, i64 20
  %16 = load i32, ptr %15, align 4, !tbaa !28
  %17 = getelementptr inbounds nuw i8, ptr %0, i64 44
  store i32 %16, ptr %17, align 4, !tbaa !46
  br label %18

18:                                               ; preds = %1, %11
  %19 = getelementptr inbounds nuw i8, ptr %0, i64 48
  %20 = getelementptr inbounds nuw i8, ptr %4, i64 24
  %21 = load i64, ptr %20, align 8
  store i64 %21, ptr %19, align 8
  ret i32 0
}